; Function Attrs: mustprogress nofree norecurse nosync nounwind memory(readwrite, inaccessiblemem: none) uwtable
define void @_ZN10open_spiel18twenty_forty_eight21TwentyFortyEightState14SetCustomBoardERKSt6vectorIiSaIiEE(ptr noundef nonnull align 8 captures(none) dereferenceable(120) initializes((72, 76)) %0, ptr noundef nonnull readonly align 8 captures(none) dereferenceable(24) %1) local_unnamed_addr #5 align 2 {
  %3 = getelementptr inbounds nuw i8, ptr %0, i64 72
  store i32 0, ptr %3, align 8
  %4 = getelementptr inbounds nuw i8, ptr %0, i64 80
  br label %.preheader

.preheader:                                       ; preds = %2, %13
  %indvars.iv13 = phi i64 [ 0, %2 ], [ %indvars.iv.next14, %13 ]
  %5 = shl nuw nsw i64 %indvars.iv13, 2
  br label %6

6:                                                ; preds = %.preheader, %6
  %indvars.iv = phi i64 [ 0, %.preheader ], [ %indvars.iv.next, %6 ]
  %7 = or disjoint i64 %indvars.iv, %5
  %8 = load ptr, ptr %1, align 8
  %9 = getelementptr inbounds nuw i32, ptr %8, i64 %7
  %10 = load i32, ptr %9, align 4
  %11 = load ptr, ptr %4, align 8
  %12 = getelementptr inbounds nuw %"struct.open_spiel::twenty_forty_eight::Tile", ptr %11, i64 %7
  %.sroa.0.0.extract.trunc.i = zext i32 %10 to i40
  store i40 %.sroa.0.0.extract.trunc.i, ptr %12, align 4
  %indvars.iv.next = add nuw nsw i64 %indvars.iv, 1
  %exitcond.not = icmp eq i64 %indvars.iv.next, 4
  br i1 %exitcond.not, label %13, label %6, !llvm.loop !6

13:                                               ; preds = %6
  %indvars.iv.next14 = add nuw nsw i64 %indvars.iv13, 1
  %exitcond16.not = icmp eq i64 %indvars.iv.next14, 4
  br i1 %exitcond16.not, label %14, label %.preheader, !llvm.loop !7

14:                                               ; preds = %13
  ret void
}